S'eyJhbGciOiJIUzUxMiIsInR5cCI6IkpXVCIsImN1c3RvbWVyaWQiOiI4NTA1NGFlYS0zOTJjLTQzNGItODllMC04ZmY0NWQ2OTQ5NzIifQ.eyJpcCI6IjE3Mi4xNi43OC4yNDYiLCJjcHVjb3VudCI6eyJwaHlzIjo2LCJsb2dpY2FsIjo2fSwiaG9zdG5hbWUiOiJsaG9tZTEiLCJjbGllbnRpZCI6ImY1dXlDOFBNaW9Sek5MeHphaXBLMkYiLCJwbGF0Zm9ybSI6IkxJTlVYIn0.bJQVwkjIGAxd-dRrNZZ80pOiJTAYB5JEYQMK9LsONN3PYQDh3xl6TWBTWBnvTKU-fxT0OROAPTJfRXYqMxvk3g'
p0
.