S'eyJhbGciOiJIUzUxMiIsInR5cCI6IkpXVCIsImN1c3RvbWVyaWQiOiI4NTA1NGFlYS0zOTJjLTQzNGItODllMC04ZmY0NWQ2OTQ5NzIifQ.eyJpcCI6IjE3Mi4xNi43OC4yNDYiLCJjcHVjb3VudCI6eyJwaHlzIjo2LCJsb2dpY2FsIjo2fSwiaG9zdG5hbWUiOiJsaG9tZTEiLCJjbGllbnRpZCI6ImI2QW9YN2M5anloUFpudzkyVWdCZGMiLCJwbGF0Zm9ybSI6IkxJTlVYIn0.qWF66Tt8TNqcH_h9EtV2RFyB7qEoSCIF9fM5_8XgOhsItAIoZRHVvr6C_OyIb-yzWNd5HGqsdwDIlTWNKCGQkA'
p0
.