S'eyJhbGciOiJIUzUxMiIsInR5cCI6IkpXVCIsImN1c3RvbWVyaWQiOiI4NTA1NGFlYS0zOTJjLTQzNGItODllMC04ZmY0NWQ2OTQ5NzIifQ.eyJpcCI6IjE3Mi4xNi43OC4yMjciLCJjcHVjb3VudCI6eyJwaHlzIjo2LCJsb2dpY2FsIjoxMn0sImhvc3RuYW1lIjoibGhvbWUyIiwiY2xpZW50aWQiOiI0UXlmTmdvcjd4M25FUW03ZFBHeEEyIiwicGxhdGZvcm0iOiJMSU5VWCJ9.kwgq6ri1_NYCYOj2KE5wJT7r-PWyAjSn4q0EeWChNW2uU9YWs3gWF-BBFIrK5fZad61SHEMh2-5uctIZQbkHZg'
p0
.